Certificate:
    Data:
        Version: 3 (0x2)
        Serial Number: 1 (0x1)
        Signature Algorithm: sha256WithRSAEncryption
        Issuer: C=FR, L=Limours, O=Test CA, Limited, CN=Test CA/emailAddress=test@example.com
        Validity
            Not Before: Jun  1 16:44:09 2022 GMT
            Not After : Feb 25 16:44:09 2025 GMT
        Subject: C=FR, L=Limours, O=Test Server, Limited, CN=Test Server
        Subject Public Key Info:
            Public Key Algorithm: rsaEncryption
                RSA Public-Key: (2048 bit)
                Modulus:
                    00:c3:77:22:9b:e1:21:8d:b7:6f:fa:f7:bd:73:b9:
                    ad:32:ff:a1:1a:d1:53:80:d4:9e:13:be:f8:76:27:
                    73:b5:ef:e6:a3:41:14:c0:17:18:3e:96:c1:35:59:
                    7a:f0:31:f2:27:1e:78:d3:3c:03:c8:00:b2:20:13:
                    1a:73:66:f9:a5:25:e7:a0:52:f0:50:99:c7:68:3b:
                    d3:3b:56:e7:7d:d7:cc:d2:d3:79:a3:43:62:1d:1d:
                    26:f9:3c:3e:9e:79:ca:9c:f4:51:8d:30:9f:a0:ff:
                    8a:52:29:6f:8d:36:45:a0:49:e2:99:87:ca:fb:0c:
                    57:74:ce:b8:1c:d4:e8:fb:2d:70:68:29:d3:37:82:
                    94:43:90:cb:65:33:e2:ac:1c:1d:71:bf:7e:5c:d8:
                    5c:c4:0e:86:02:e3:08:12:fa:a6:bf:2d:b7:d8:b1:
                    f9:94:de:12:c6:86:7a:ff:32:d2:ab:0e:10:b3:be:
                    db:f7:54:8d:ee:23:2e:5a:30:44:64:ee:3f:eb:7a:
                    89:c5:ca:24:ca:48:7e:e1:ac:a7:e5:8d:bd:c9:e8:
                    14:66:42:3d:31:c7:28:5b:89:e9:d7:fc:87:bc:25:
                    84:7c:9d:41:e9:6d:99:cb:fd:f4:8a:86:8d:29:c4:
                    d9:23:5d:86:8e:d5:f1:f1:eb:89:c9:0f:6c:10:be:
                    7c:2f
                Exponent: 65537 (0x10001)
        X509v3 extensions:
            X509v3 Subject Key Identifier: 
                8C:7E:03:B1:ED:D6:9C:E5:32:AD:B2:7C:65:54:F8:FF:57:E0:1A:3F
            X509v3 Authority Key Identifier: 
                keyid:6A:C6:A2:ED:BA:FF:0F:55:23:86:38:2C:7F:54:28:ED:90:54:AA:E7

            X509v3 Basic Constraints: 
                CA:FALSE
            X509v3 Key Usage: 
                Digital Signature, Key Encipherment
            X509v3 Subject Alternative Name: 
                DNS:example.com, DNS:www.example.com, DNS:mail.example.com, DNS:ftp.example.com, IP Address:127.0.0.1, IP Address:0:0:0:0:0:0:0:1
            Netscape Comment: 
                OpenSSL Generated Certificate
    Signature Algorithm: sha256WithRSAEncryption
         24:a7:12:51:d3:24:38:c2:b9:c4:8d:3d:3b:13:f7:72:89:9b:
         97:7e:1c:ca:c1:6d:9a:af:d1:ac:65:db:d2:94:d2:ba:db:37:
         b7:48:db:90:fe:89:d1:b1:4d:22:a1:39:b5:99:3b:d5:fe:ea:
         82:47:88:73:82:9f:67:51:fc:77:46:4a:75:59:74:b8:92:70:
         57:28:95:2e:b4:5d:08:cc:75:56:16:59:0f:e4:18:f9:35:fd:
         d4:29:17:aa:06:99:61:bd:c4:94:63:74:7c:fb:28:ce:0b:5f:
         bd:0d:1c:c0:22:e5:a2:7d:4a:47:fa:ea:24:90:60:2d:6f:11:
         a1:2c:db:68:24:98:4b:5a:0c:c7:1d:b8:f5:a9:b9:af:23:2b:
         d6:8e:ad:63:a6:6d:4c:33:3e:73:1f:99:01:f4:85:c0:d0:9a:
         52:2f:b3:7d:a4:20:74:d4:22:8f:b1:a7:18:35:aa:9b:d3:bc:
         61:f4:3a:bd:79:57:e1:35:f0:41:95:ba:88:a5:5b:9a:6f:19:
         f8:21:a0:5b:05:b6:fb:d6:60:62:ce:e8:50:fb:47:ca:e3:86:
         b0:56:fc:00:91:a5:a7:fd:22:54:ea:c3:a4:39:31:7a:38:21:
         18:55:01:83:2c:91:06:d6:d6:10:21:24:23:b4:53:0f:3c:50:
         9b:bf:82:0a:ad:aa:e4:57:10:f8:8e:d9:86:e8:53:e6:bd:25:
         d7:da:8d:e8:0b:e9:0b:2f:75:bc:ea:50:53:06:be:0a:4d:45:
         e5:9f:66:b6:68:b9:0b:f8:68:93:03:7c:55:68:43:3d:61:97:
         0e:6b:0d:36:bb:f1:da:4b:73:fd:fd:27:a3:f2:e3:85:37:10:
         e9:96:d7:38:a3:2a:58:b0:85:37:b0:64:a2:54:7c:ac:f6:14:
         72:e0:fc:51:47:06:ef:8b:95:40:95:7c:08:81:23:bd:0d:17:
         d6:36:d7:a5:b3:48:4f:62:5f:96:c1:ae:ad:b3:db:3e:4a:44:
         42:af:78:9e:46:94:00:4e:68:a6:aa:ab:84:19:ab:e2:2d:05:
         2f:65:32:53:e9:6a:3d:75:a3:77:b1:c0:e9:3d:de:93:2a:43:
         ab:0a:97:95:a1:39:ea:2e:77:ef:7c:60:85:4e:64:e8:e3:89:
         48:eb:75:f9:ea:6d:11:7c:96:74:cd:a8:53:11:99:50:0b:09:
         57:f0:0f:42:e3:49:a1:00:31:5e:d4:5d:16:88:2e:b0:85:31:
         a8:27:03:bc:1f:0f:35:93:91:4b:97:98:88:ed:a3:56:96:19:
         c3:2f:be:da:df:56:38:4a:17:c5:26:5d:20:ce:0e:ef:ef:96:
         ea:bb:cc:b8:16:37:c5:d7
-----BEGIN CERTIFICATE-----
MIIFKjCCAxKgAwIBAgIBATANBgkqhkiG9w0BAQsFADBtMQswCQYDVQQGEwJGUjEQ
MA4GA1UEBwwHTGltb3VyczEZMBcGA1UECgwQVGVzdCBDQSwgTGltaXRlZDEQMA4G
A1UEAwwHVGVzdCBDQTEfMB0GCSqGSIb3DQEJARYQdGVzdEBleGFtcGxlLmNvbTAe
Fw0yMjA2MDExNjQ0MDlaFw0yNTAyMjUxNjQ0MDlaMFQxCzAJBgNVBAYTAkZSMRAw
DgYDVQQHDAdMaW1vdXJzMR0wGwYDVQQKDBRUZXN0IFNlcnZlciwgTGltaXRlZDEU
MBIGA1UEAwwLVGVzdCBTZXJ2ZXIwggEiMA0GCSqGSIb3DQEBAQUAA4IBDwAwggEK
AoIBAQDDdyKb4SGNt2/6971zua0y/6Ea0VOA1J4Tvvh2J3O17+ajQRTAFxg+lsE1
WXrwMfInHnjTPAPIALIgExpzZvmlJeegUvBQmcdoO9M7Vud918zS03mjQ2IdHSb5
PD6eecqc9FGNMJ+g/4pSKW+NNkWgSeKZh8r7DFd0zrgc1Oj7LXBoKdM3gpRDkMtl
M+KsHB1xv35c2FzEDoYC4wgS+qa/LbfYsfmU3hLGhnr/MtKrDhCzvtv3VI3uIy5a
MERk7j/reonFyiTKSH7hrKfljb3J6BRmQj0xxyhbienX/Ie8JYR8nUHpbZnL/fSK
ho0pxNkjXYaO1fHx64nJD2wQvnwvAgMBAAGjge0wgeowHQYDVR0OBBYEFIx+A7Ht
1pzlMq2yfGVU+P9X4Bo/MB8GA1UdIwQYMBaAFGrGou26/w9VI4Y4LH9UKO2QVKrn
MAkGA1UdEwQCMAAwCwYDVR0PBAQDAgWgMGIGA1UdEQRbMFmCC2V4YW1wbGUuY29t
gg93d3cuZXhhbXBsZS5jb22CEG1haWwuZXhhbXBsZS5jb22CD2Z0cC5leGFtcGxl
LmNvbYcEfwAAAYcQAAAAAAAAAAAAAAAAAAAAATAsBglghkgBhvhCAQ0EHxYdT3Bl
blNTTCBHZW5lcmF0ZWQgQ2VydGlmaWNhdGUwDQYJKoZIhvcNAQELBQADggIBACSn
ElHTJDjCucSNPTsT93KJm5d+HMrBbZqv0axl29KU0rrbN7dI25D+idGxTSKhObWZ
O9X+6oJHiHOCn2dR/HdGSnVZdLiScFcolS60XQjMdVYWWQ/kGPk1/dQpF6oGmWG9
xJRjdHz7KM4LX70NHMAi5aJ9Skf66iSQYC1vEaEs22gkmEtaDMcduPWpua8jK9aO
rWOmbUwzPnMfmQH0hcDQmlIvs32kIHTUIo+xpxg1qpvTvGH0Or15V+E18EGVuoil
W5pvGfghoFsFtvvWYGLO6FD7R8rjhrBW/ACRpaf9IlTqw6Q5MXo4IRhVAYMskQbW
1hAhJCO0Uw88UJu/ggqtquRXEPiO2YboU+a9JdfajegL6QsvdbzqUFMGvgpNReWf
ZrZouQv4aJMDfFVoQz1hlw5rDTa78dpLc/39J6Py44U3EOmW1zijKliwhTewZKJU
fKz2FHLg/FFHBu+LlUCVfAiBI70NF9Y216WzSE9iX5bBrq2z2z5KREKveJ5GlABO
aKaqq4QZq+ItBS9lMlPpaj11o3exwOk93pMqQ6sKl5WhOeoud+98YIVOZOjjiUjr
dfnqbRF8lnTNqFMRmVALCVfwD0LjSaEAMV7UXRaILrCFMagnA7wfDzWTkUuXmIjt
o1aWGcMvvtrfVjhKF8UmXSDODu/vluq7zLgWN8XX
-----END CERTIFICATE-----
